target datalayout = "e-m:e-p270:32:32-p271:32:32-p272:64:64-i64:64-i128:128-f80:128-n8:16:32:64-S128"
target triple = "x86_64-unknown-linux-gnu"

%"class.absl::Mutex" = type { %"struct.std::atomic" }
%"struct.std::atomic" = type { %"struct.std::__atomic_base" }
%"struct.std::__atomic_base" = type { i64 }
%"class.absl::CondVar" = type { %"struct.std::atomic" }
%"class.absl::ReaderMutexLock" = type { ptr }
%"class.absl::WriterMutexLock" = type { ptr }
%"class.absl::log_internal::Voidify" = type { i8 }
%"class.absl::log_internal::LogMessageFatal" = type { %"class.absl::log_internal::LogMessage" }
%"class.absl::log_internal::LogMessage" = type { %"class.absl::base_internal::ErrnoSaver", %"class.std::unique_ptr.260" }
%"class.absl::base_internal::ErrnoSaver" = type { i32 }
%"class.std::unique_ptr.260" = type { %"struct.std::__uniq_ptr_data.261" }
%"struct.std::__uniq_ptr_data.261" = type { %"class.std::__uniq_ptr_impl.262" }
%"class.std::__uniq_ptr_impl.262" = type { %"class.std::tuple.263" }
%"class.std::tuple.263" = type { %"struct.std::_Tuple_impl.264" }
%"struct.std::_Tuple_impl.264" = type { %"struct.std::_Head_base.267" }
%"struct.std::_Head_base.267" = type { ptr }
%"class.std::basic_string_view" = type { i64, ptr }
%"struct.(anonymous namespace)::TestContext" = type { i32, i32, i32, i32, %"class.absl::Mutex", %"class.absl::CondVar" }

@.str.3 = private unnamed_addr constant [134 x i8] c"generated/home/dtcxzyw/WorkSpace/Projects/compilers/llvm-opt-benchmark/bench/abseil-cpp/abseil-cpp/absl/synchronization/mutex_test.cc\00", align 1
@.str.165 = private unnamed_addr constant [20 x i8] c"cxt->g0 == -cxt->g1\00", align 1
@.str.177 = private unnamed_addr constant [16 x i8] c"Error in TestRW\00", align 1

; Function Attrs: mustprogress uwtable
define linkonce_odr dso_local noundef ptr @_ZN4absl12log_internal12Check_EQImplIiiEEPNSt7__cxx1112basic_stringIcSt11char_traitsIcESaIcEEERKT_RKT0_PKc(ptr noundef nonnull align 4 dereferenceable(4) %v1, ptr noundef nonnull align 4 dereferenceable(4) %v2, ptr noundef %exprtext) #4 comdat {
entry:
  %v1.addr = alloca ptr, align 8
  %v2.addr = alloca ptr, align 8
  %exprtext.addr = alloca ptr, align 8
  store ptr %v1, ptr %v1.addr, align 8
  store ptr %v2, ptr %v2.addr, align 8
  store ptr %exprtext, ptr %exprtext.addr, align 8
  %0 = load ptr, ptr %v1.addr, align 8
  %1 = load i32, ptr %0, align 4
  %2 = load ptr, ptr %v2.addr, align 8
  %3 = load i32, ptr %2, align 4
  %cmp = icmp eq i32 %1, %3
  br i1 %cmp, label %cond.true, label %cond.false

cond.true:                                        ; preds = %entry
  br label %cond.end

cond.false:                                       ; preds = %entry
  %4 = load ptr, ptr %v1.addr, align 8
  %5 = load i32, ptr %4, align 4
  %conv = sext i32 %5 to i64
  %6 = load ptr, ptr %v2.addr, align 8
  %7 = load i32, ptr %6, align 4
  %conv1 = sext i32 %7 to i64
  %8 = load ptr, ptr %exprtext.addr, align 8
  %call = call noundef nonnull ptr @_ZN4absl12log_internal17MakeCheckOpStringIllEEPNSt7__cxx1112basic_stringIcSt11char_traitsIcESaIcEEET_T0_PKc(i64 noundef %conv, i64 noundef %conv1, ptr noundef %8)
  br label %cond.end

cond.end:                                         ; preds = %cond.false, %cond.true
  %cond = phi ptr [ null, %cond.true ], [ %call, %cond.false ]
  ret ptr %cond
}

; Function Attrs: mustprogress uwtable
define linkonce_odr dso_local void @_ZN4absl5Mutex12WriterUnlockEv(ptr noundef nonnull align 8 dereferenceable(8) %this) #4 comdat align 2 {
entry:
  %this.addr = alloca ptr, align 8
  store ptr %this, ptr %this.addr, align 8
  %this1 = load ptr, ptr %this.addr, align 8
  call void @_ZN4absl5Mutex6UnlockEv(ptr noundef nonnull align 8 dereferenceable(8) %this1)
  ret void
}

; Function Attrs: mustprogress uwtable
define linkonce_odr dso_local void @_ZN4absl5Mutex10WriterLockEv(ptr noundef nonnull align 8 dereferenceable(8) %this) #4 comdat align 2 {
entry:
  %this.addr = alloca ptr, align 8
  store ptr %this, ptr %this.addr, align 8
  %this1 = load ptr, ptr %this.addr, align 8
  call void @_ZN4absl5Mutex4LockEv(ptr noundef nonnull align 8 dereferenceable(8) %this1)
  ret void
}

; Function Attrs: mustprogress nounwind uwtable
define linkonce_odr dso_local void @_ZN4absl15ReaderMutexLockD2Ev(ptr noundef nonnull align 8 dereferenceable(8) %this) unnamed_addr #7 comdat align 2 personality ptr @__gxx_personality_v0 {
entry:
  %this.addr = alloca ptr, align 8
  store ptr %this, ptr %this.addr, align 8
  %this1 = load ptr, ptr %this.addr, align 8
  %mu_ = getelementptr inbounds %"class.absl::ReaderMutexLock", ptr %this1, i32 0, i32 0
  %0 = load ptr, ptr %mu_, align 8
  invoke void @_ZN4absl5Mutex12ReaderUnlockEv(ptr noundef nonnull align 8 dereferenceable(8) %0)
          to label %invoke.cont unwind label %terminate.lpad

invoke.cont:                                      ; preds = %entry
  ret void

terminate.lpad:                                   ; preds = %entry
  %1 = landingpad { ptr, i32 }
          catch ptr null
  %2 = extractvalue { ptr, i32 } %1, 0
  call void @__clang_call_terminate(ptr %2) #27
  unreachable
}

; Function Attrs: mustprogress nounwind uwtable
define linkonce_odr dso_local void @_ZNKO4absl12log_internal7VoidifyaaINS0_10LogMessageEEEvRKT_(ptr noundef nonnull align 1 dereferenceable(1) %this, ptr noundef nonnull align 8 dereferenceable(16) %0) #7 comdat align 2 {
entry:
  %this.addr = alloca ptr, align 8
  %.addr = alloca ptr, align 8
  store ptr %this, ptr %this.addr, align 8
  store ptr %0, ptr %.addr, align 8
  ret void
}

; Function Attrs: mustprogress nounwind uwtable
define linkonce_odr dso_local noundef nonnull align 8 dereferenceable(16) ptr @_ZN4absl12log_internal10LogMessage14InternalStreamEv(ptr noundef nonnull align 8 dereferenceable(16) %this) #7 comdat align 2 {
entry:
  %this.addr = alloca ptr, align 8
  store ptr %this, ptr %this.addr, align 8
  %this1 = load ptr, ptr %this.addr, align 8
  ret ptr %this1
}

; Function Attrs: mustprogress uwtable
define linkonce_odr dso_local noundef ptr @_ZN4absl12log_internal12Check_EQImplB5cxx11EiiPKc(i32 noundef %v1, i32 noundef %v2, ptr noundef %exprtext) #4 comdat {
entry:
  %v1.addr = alloca i32, align 4
  %v2.addr = alloca i32, align 4
  %exprtext.addr = alloca ptr, align 8
  store i32 %v1, ptr %v1.addr, align 4
  store i32 %v2, ptr %v2.addr, align 4
  store ptr %exprtext, ptr %exprtext.addr, align 8
  %0 = load ptr, ptr %exprtext.addr, align 8
  %call = call noundef ptr @_ZN4absl12log_internal12Check_EQImplIiiEEPNSt7__cxx1112basic_stringIcSt11char_traitsIcESaIcEEERKT_RKT0_PKc(ptr noundef nonnull align 4 dereferenceable(4) %v1.addr, ptr noundef nonnull align 4 dereferenceable(4) %v2.addr, ptr noundef %0)
  ret ptr %call
}

; Function Attrs: mustprogress nounwind uwtable
define linkonce_odr dso_local noundef i32 @_ZN4absl12log_internal21GetReferenceableValueEi(i32 noundef %t) #7 comdat {
entry:
  %t.addr = alloca i32, align 4
  store i32 %t, ptr %t.addr, align 4
  %0 = load i32, ptr %t.addr, align 4
  ret i32 %0
}

; Function Attrs: mustprogress uwtable
define linkonce_odr dso_local void @_ZN4absl15ReaderMutexLockC2EPNS_5MutexE(ptr noundef nonnull align 8 dereferenceable(8) %this, ptr noundef %mu) unnamed_addr #4 comdat align 2 {
entry:
  %this.addr = alloca ptr, align 8
  %mu.addr = alloca ptr, align 8
  store ptr %this, ptr %this.addr, align 8
  store ptr %mu, ptr %mu.addr, align 8
  %this1 = load ptr, ptr %this.addr, align 8
  %mu_ = getelementptr inbounds %"class.absl::ReaderMutexLock", ptr %this1, i32 0, i32 0
  %0 = load ptr, ptr %mu.addr, align 8
  store ptr %0, ptr %mu_, align 8
  %1 = load ptr, ptr %mu.addr, align 8
  call void @_ZN4absl5Mutex10ReaderLockEv(ptr noundef nonnull align 8 dereferenceable(8) %1)
  ret void
}

; Function Attrs: mustprogress nounwind uwtable
define linkonce_odr dso_local void @_ZN4absl15WriterMutexLockD2Ev(ptr noundef nonnull align 8 dereferenceable(8) %this) unnamed_addr #7 comdat align 2 personality ptr @__gxx_personality_v0 {
entry:
  %this.addr = alloca ptr, align 8
  store ptr %this, ptr %this.addr, align 8
  %this1 = load ptr, ptr %this.addr, align 8
  %mu_ = getelementptr inbounds %"class.absl::WriterMutexLock", ptr %this1, i32 0, i32 0
  %0 = load ptr, ptr %mu_, align 8
  invoke void @_ZN4absl5Mutex12WriterUnlockEv(ptr noundef nonnull align 8 dereferenceable(8) %0)
          to label %invoke.cont unwind label %terminate.lpad

invoke.cont:                                      ; preds = %entry
  ret void

terminate.lpad:                                   ; preds = %entry
  %1 = landingpad { ptr, i32 }
          catch ptr null
  %2 = extractvalue { ptr, i32 } %1, 0
  call void @__clang_call_terminate(ptr %2) #27
  unreachable
}

; Function Attrs: mustprogress uwtable
define linkonce_odr dso_local void @_ZN4absl15WriterMutexLockC2EPNS_5MutexE(ptr noundef nonnull align 8 dereferenceable(8) %this, ptr noundef %mu) unnamed_addr #4 comdat align 2 {
entry:
  %this.addr = alloca ptr, align 8
  %mu.addr = alloca ptr, align 8
  store ptr %this, ptr %this.addr, align 8
  store ptr %mu, ptr %mu.addr, align 8
  %this1 = load ptr, ptr %this.addr, align 8
  %mu_ = getelementptr inbounds %"class.absl::WriterMutexLock", ptr %this1, i32 0, i32 0
  %0 = load ptr, ptr %mu.addr, align 8
  store ptr %0, ptr %mu_, align 8
  %1 = load ptr, ptr %mu.addr, align 8
  call void @_ZN4absl5Mutex10WriterLockEv(ptr noundef nonnull align 8 dereferenceable(8) %1)
  ret void
}

; Function Attrs: mustprogress uwtable
define internal void @_ZN12_GLOBAL__N_16TestRWEPNS_11TestContextEi(ptr noundef %cxt, i32 noundef %c) #4 personality ptr @__gxx_personality_v0 {
entry:
  %cxt.addr = alloca ptr, align 8
  %c.addr = alloca i32, align 4
  %i = alloca i32, align 4
  %l = alloca %"class.absl::WriterMutexLock", align 8
  %exn.slot = alloca ptr, align 8
  %ehselector.slot = alloca i32, align 4
  %i6 = alloca i32, align 4
  %l11 = alloca %"class.absl::ReaderMutexLock", align 8
  %absl_log_internal_check_op_result = alloca ptr, align 8
  %ref.tmp = alloca %"class.absl::log_internal::Voidify", align 1
  %ref.tmp19 = alloca %"class.absl::log_internal::LogMessageFatal", align 8
  %agg.tmp = alloca %"class.std::basic_string_view", align 8
  store ptr %cxt, ptr %cxt.addr, align 8
  store i32 %c, ptr %c.addr, align 4
  %0 = load i32, ptr %c.addr, align 4
  %and = and i32 %0, 1
  %cmp = icmp eq i32 %and, 0
  br i1 %cmp, label %if.then, label %if.else

if.then:                                          ; preds = %entry
  store i32 0, ptr %i, align 4
  br label %for.cond

for.cond:                                         ; preds = %for.inc, %if.then
  %1 = load i32, ptr %i, align 4
  %2 = load ptr, ptr %cxt.addr, align 8
  %iterations = getelementptr inbounds %"struct.(anonymous namespace)::TestContext", ptr %2, i32 0, i32 0
  %3 = load i32, ptr %iterations, align 8
  %cmp1 = icmp ne i32 %1, %3
  br i1 %cmp1, label %for.body, label %for.end

for.body:                                         ; preds = %for.cond
  %4 = load ptr, ptr %cxt.addr, align 8
  %mu = getelementptr inbounds %"struct.(anonymous namespace)::TestContext", ptr %4, i32 0, i32 4
  call void @_ZN4absl15WriterMutexLockC2EPNS_5MutexE(ptr noundef nonnull align 8 dereferenceable(8) %l, ptr noundef %mu)
  %5 = load ptr, ptr %cxt.addr, align 8
  %g0 = getelementptr inbounds %"struct.(anonymous namespace)::TestContext", ptr %5, i32 0, i32 2
  %6 = load i32, ptr %g0, align 8
  %inc = add nsw i32 %6, 1
  store i32 %inc, ptr %g0, align 8
  %7 = load ptr, ptr %cxt.addr, align 8
  %g1 = getelementptr inbounds %"struct.(anonymous namespace)::TestContext", ptr %7, i32 0, i32 3
  %8 = load i32, ptr %g1, align 4
  %dec = add nsw i32 %8, -1
  store i32 %dec, ptr %g1, align 4
  %9 = load ptr, ptr %cxt.addr, align 8
  %mu2 = getelementptr inbounds %"struct.(anonymous namespace)::TestContext", ptr %9, i32 0, i32 4
  invoke void @_ZNK4absl5Mutex10AssertHeldEv(ptr noundef nonnull align 8 dereferenceable(8) %mu2)
          to label %invoke.cont unwind label %lpad

invoke.cont:                                      ; preds = %for.body
  %10 = load ptr, ptr %cxt.addr, align 8
  %mu3 = getelementptr inbounds %"struct.(anonymous namespace)::TestContext", ptr %10, i32 0, i32 4
  invoke void @_ZNK4absl5Mutex16AssertReaderHeldEv(ptr noundef nonnull align 8 dereferenceable(8) %mu3)
          to label %invoke.cont4 unwind label %lpad

invoke.cont4:                                     ; preds = %invoke.cont
  call void @_ZN4absl15WriterMutexLockD2Ev(ptr noundef nonnull align 8 dereferenceable(8) %l) #3
  br label %for.inc

for.inc:                                          ; preds = %invoke.cont4
  %11 = load i32, ptr %i, align 4
  %inc5 = add nsw i32 %11, 1
  store i32 %inc5, ptr %i, align 4
  br label %for.cond, !llvm.loop !50

lpad:                                             ; preds = %invoke.cont, %for.body
  %12 = landingpad { ptr, i32 }
          cleanup
  %13 = extractvalue { ptr, i32 } %12, 0
  store ptr %13, ptr %exn.slot, align 8
  %14 = extractvalue { ptr, i32 } %12, 1
  store i32 %14, ptr %ehselector.slot, align 4
  call void @_ZN4absl15WriterMutexLockD2Ev(ptr noundef nonnull align 8 dereferenceable(8) %l) #3
  br label %eh.resume

for.end:                                          ; preds = %for.cond
  br label %if.end

if.else:                                          ; preds = %entry
  store i32 0, ptr %i6, align 4
  br label %for.cond7

for.cond7:                                        ; preds = %for.inc28, %if.else
  %15 = load i32, ptr %i6, align 4
  %16 = load ptr, ptr %cxt.addr, align 8
  %iterations8 = getelementptr inbounds %"struct.(anonymous namespace)::TestContext", ptr %16, i32 0, i32 0
  %17 = load i32, ptr %iterations8, align 8
  %cmp9 = icmp ne i32 %15, %17
  br i1 %cmp9, label %for.body10, label %for.end30

for.body10:                                       ; preds = %for.cond7
  %18 = load ptr, ptr %cxt.addr, align 8
  %mu12 = getelementptr inbounds %"struct.(anonymous namespace)::TestContext", ptr %18, i32 0, i32 4
  call void @_ZN4absl15ReaderMutexLockC2EPNS_5MutexE(ptr noundef nonnull align 8 dereferenceable(8) %l11, ptr noundef %mu12)
  br label %while.cond

while.cond:                                       ; preds = %for.body10
  %19 = load ptr, ptr %cxt.addr, align 8
  %g013 = getelementptr inbounds %"struct.(anonymous namespace)::TestContext", ptr %19, i32 0, i32 2
  %20 = load i32, ptr %g013, align 8
  %call = call noundef i32 @_ZN4absl12log_internal21GetReferenceableValueEi(i32 noundef %20)
  %21 = load ptr, ptr %cxt.addr, align 8
  %g114 = getelementptr inbounds %"struct.(anonymous namespace)::TestContext", ptr %21, i32 0, i32 3
  %22 = load i32, ptr %g114, align 4
  %sub = sub nsw i32 0, %22
  %call15 = call noundef i32 @_ZN4absl12log_internal21GetReferenceableValueEi(i32 noundef %sub)
  %call18 = invoke noundef ptr @_ZN4absl12log_internal12Check_EQImplB5cxx11EiiPKc(i32 noundef %call, i32 noundef %call15, ptr noundef @.str.165)
          to label %invoke.cont17 unwind label %lpad16

invoke.cont17:                                    ; preds = %while.cond
  store ptr %call18, ptr %absl_log_internal_check_op_result, align 8
  %23 = load ptr, ptr %absl_log_internal_check_op_result, align 8
  %tobool = icmp ne ptr %23, null
  br i1 %tobool, label %while.body, label %while.end

while.body:                                       ; preds = %invoke.cont17
  %24 = load ptr, ptr %absl_log_internal_check_op_result, align 8
  %call20 = call { i64, ptr } @_ZNKSt7__cxx1112basic_stringIcSt11char_traitsIcESaIcEEcvSt17basic_string_viewIcS2_EEv(ptr noundef nonnull align 8 dereferenceable(32) %24) #3
  %25 = getelementptr inbounds { i64, ptr }, ptr %agg.tmp, i32 0, i32 0
  %26 = extractvalue { i64, ptr } %call20, 0
  store i64 %26, ptr %25, align 8
  %27 = getelementptr inbounds { i64, ptr }, ptr %agg.tmp, i32 0, i32 1
  %28 = extractvalue { i64, ptr } %call20, 1
  store ptr %28, ptr %27, align 8
  %29 = getelementptr inbounds { i64, ptr }, ptr %agg.tmp, i32 0, i32 0
  %30 = load i64, ptr %29, align 8
  %31 = getelementptr inbounds { i64, ptr }, ptr %agg.tmp, i32 0, i32 1
  %32 = load ptr, ptr %31, align 8
  invoke void @_ZN4absl12log_internal15LogMessageFatalC1EPKciSt17basic_string_viewIcSt11char_traitsIcEE(ptr noundef nonnull align 8 dereferenceable(16) %ref.tmp19, ptr noundef @.str.3, i32 noundef 142, i64 %30, ptr %32) #30
          to label %invoke.cont21 unwind label %lpad16

invoke.cont21:                                    ; preds = %while.body
  %call22 = call noundef nonnull align 8 dereferenceable(16) ptr @_ZN4absl12log_internal10LogMessage14InternalStreamEv(ptr noundef nonnull align 8 dereferenceable(16) %ref.tmp19)
  %call25 = invoke noundef nonnull align 8 dereferenceable(16) ptr @_ZN4absl12log_internal10LogMessagelsILi16EEERS1_RAT__Kc(ptr noundef nonnull align 8 dereferenceable(16) %call22, ptr noundef nonnull align 1 dereferenceable(16) @.str.177)
          to label %invoke.cont24 unwind label %lpad23

invoke.cont24:                                    ; preds = %invoke.cont21
  call void @_ZNKO4absl12log_internal7VoidifyaaINS0_10LogMessageEEEvRKT_(ptr noundef nonnull align 1 dereferenceable(1) %ref.tmp, ptr noundef nonnull align 8 dereferenceable(16) %call25)
  call void @_ZN4absl12log_internal15LogMessageFatalD1Ev(ptr noundef nonnull align 8 dereferenceable(16) %ref.tmp19) #27
  unreachable

lpad16:                                           ; preds = %while.end, %while.body, %while.cond
  %33 = landingpad { ptr, i32 }
          cleanup
  %34 = extractvalue { ptr, i32 } %33, 0
  store ptr %34, ptr %exn.slot, align 8
  %35 = extractvalue { ptr, i32 } %33, 1
  store i32 %35, ptr %ehselector.slot, align 4
  br label %ehcleanup

lpad23:                                           ; preds = %invoke.cont21
  %36 = landingpad { ptr, i32 }
          cleanup
  %37 = extractvalue { ptr, i32 } %36, 0
  store ptr %37, ptr %exn.slot, align 8
  %38 = extractvalue { ptr, i32 } %36, 1
  store i32 %38, ptr %ehselector.slot, align 4
  call void @_ZN4absl12log_internal15LogMessageFatalD1Ev(ptr noundef nonnull align 8 dereferenceable(16) %ref.tmp19) #27
  unreachable

39:                                               ; No predecessors!
  br label %ehcleanup

while.end:                                        ; preds = %invoke.cont17
  %40 = load ptr, ptr %cxt.addr, align 8
  %mu26 = getelementptr inbounds %"struct.(anonymous namespace)::TestContext", ptr %40, i32 0, i32 4
  invoke void @_ZNK4absl5Mutex16AssertReaderHeldEv(ptr noundef nonnull align 8 dereferenceable(8) %mu26)
          to label %invoke.cont27 unwind label %lpad16

invoke.cont27:                                    ; preds = %while.end
  call void @_ZN4absl15ReaderMutexLockD2Ev(ptr noundef nonnull align 8 dereferenceable(8) %l11) #3
  br label %for.inc28

for.inc28:                                        ; preds = %invoke.cont27
  %41 = load i32, ptr %i6, align 4
  %inc29 = add nsw i32 %41, 1
  store i32 %inc29, ptr %i6, align 4
  br label %for.cond7, !llvm.loop !51

ehcleanup:                                        ; preds = %39, %lpad16
  call void @_ZN4absl15ReaderMutexLockD2Ev(ptr noundef nonnull align 8 dereferenceable(8) %l11) #3
  br label %eh.resume

for.end30:                                        ; preds = %for.cond7
  br label %if.end

if.end:                                           ; preds = %for.end30, %for.end
  ret void

eh.resume:                                        ; preds = %ehcleanup, %lpad
  %exn = load ptr, ptr %exn.slot, align 8
  %sel = load i32, ptr %ehselector.slot, align 4
  %lpad.val = insertvalue { ptr, i32 } poison, ptr %exn, 0
  %lpad.val31 = insertvalue { ptr, i32 } %lpad.val, i32 %sel, 1
  resume { ptr, i32 } %lpad.val31
}