; Function Attrs: mustprogress uwtable
define internal void @_ZN12_GLOBAL__N_16TestRWEPNS_11TestContextEi(ptr noundef %cxt, i32 noundef %c) #3 personality ptr @__gxx_personality_v0 {
entry:
  %ref.tmp19 = alloca %"class.absl::log_internal::LogMessageFatal", align 8
  %and = and i32 %c, 1
  %cmp = icmp eq i32 %and, 0
  %0 = load i32, ptr %cxt, align 8
  %cmp1.not36 = icmp eq i32 %0, 0
  br i1 %cmp, label %for.cond.preheader, label %for.cond7.preheader

for.cond7.preheader:                              ; preds = %entry
  br i1 %cmp1.not36, label %if.end, label %for.body10.lr.ph

for.body10.lr.ph:                                 ; preds = %for.cond7.preheader
  %mu12 = getelementptr inbounds i8, ptr %cxt, i64 16
  %g013 = getelementptr inbounds i8, ptr %cxt, i64 8
  %g114 = getelementptr inbounds i8, ptr %cxt, i64 12
  br label %for.body10

for.cond.preheader:                               ; preds = %entry
  br i1 %cmp1.not36, label %if.end, label %for.body.lr.ph

for.body.lr.ph:                                   ; preds = %for.cond.preheader
  %mu = getelementptr inbounds i8, ptr %cxt, i64 16
  %g0 = getelementptr inbounds i8, ptr %cxt, i64 8
  br label %for.body

for.body:                                         ; preds = %for.body.lr.ph, %_ZN4absl15WriterMutexLockD2Ev.exit
  %i.037 = phi i32 [ 0, %for.body.lr.ph ], [ %inc5, %_ZN4absl15WriterMutexLockD2Ev.exit ]
  tail call void @_ZN4absl5Mutex4LockEv(ptr noundef nonnull align 8 dereferenceable(8) %mu)
  %1 = load <2 x i32>, ptr %g0, align 8
  %2 = add nsw <2 x i32> %1, <i32 1, i32 -1>
  store <2 x i32> %2, ptr %g0, align 8
  invoke void @_ZNK4absl5Mutex10AssertHeldEv(ptr noundef nonnull align 8 dereferenceable(8) %mu)
          to label %invoke.cont unwind label %lpad

invoke.cont:                                      ; preds = %for.body
  invoke void @_ZNK4absl5Mutex16AssertReaderHeldEv(ptr noundef nonnull align 8 dereferenceable(8) %mu)
          to label %invoke.cont4 unwind label %lpad

invoke.cont4:                                     ; preds = %invoke.cont
  invoke void @_ZN4absl5Mutex6UnlockEv(ptr noundef nonnull align 8 dereferenceable(8) %mu)
          to label %_ZN4absl15WriterMutexLockD2Ev.exit unwind label %terminate.lpad.i

terminate.lpad.i:                                 ; preds = %invoke.cont4
  %3 = landingpad { ptr, i32 }
          catch ptr null
  %4 = extractvalue { ptr, i32 } %3, 0
  tail call void @__clang_call_terminate(ptr %4) #38
  unreachable

_ZN4absl15WriterMutexLockD2Ev.exit:               ; preds = %invoke.cont4
  %inc5 = add nuw nsw i32 %i.037, 1
  %5 = load i32, ptr %cxt, align 8
  %cmp1.not = icmp eq i32 %inc5, %5
  br i1 %cmp1.not, label %if.end, label %for.body, !llvm.loop !329

lpad:                                             ; preds = %invoke.cont, %for.body
  %6 = landingpad { ptr, i32 }
          cleanup
  invoke void @_ZN4absl5Mutex6UnlockEv(ptr noundef nonnull align 8 dereferenceable(8) %mu)
          to label %eh.resume unwind label %terminate.lpad.i15

terminate.lpad.i15:                               ; preds = %lpad
  %7 = landingpad { ptr, i32 }
          catch ptr null
  %8 = extractvalue { ptr, i32 } %7, 0
  tail call void @__clang_call_terminate(ptr %8) #38
  unreachable

for.body10:                                       ; preds = %for.body10.lr.ph, %_ZN4absl15ReaderMutexLockD2Ev.exit20
  %i6.035 = phi i32 [ 0, %for.body10.lr.ph ], [ %inc29, %_ZN4absl15ReaderMutexLockD2Ev.exit20 ]
  tail call void @_ZN4absl5Mutex10ReaderLockEv(ptr noundef nonnull align 8 dereferenceable(8) %mu12)
  %9 = load i32, ptr %g013, align 8
  %10 = load i32, ptr %g114, align 4
  %sub = sub nsw i32 0, %10
  %cmp.i.i = icmp eq i32 %9, %sub
  br i1 %cmp.i.i, label %while.end, label %cond.false.i.i

cond.false.i.i:                                   ; preds = %for.body10
  %conv.i.i = sext i32 %9 to i64
  %conv1.i.i = sext i32 %sub to i64
  %call.i.i17 = invoke noundef nonnull ptr @_ZN4absl12log_internal17MakeCheckOpStringIllEEPNSt7__cxx1112basic_stringIcSt11char_traitsIcESaIcEEET_T0_PKc(i64 noundef %conv.i.i, i64 noundef %conv1.i.i, ptr noundef nonnull @.str.165)
          to label %while.body unwind label %lpad16.loopexit.split-lp

while.body:                                       ; preds = %cond.false.i.i
  %call20 = tail call { i64, ptr } @_ZNKSt7__cxx1112basic_stringIcSt11char_traitsIcESaIcEEcvSt17basic_string_viewIcS2_EEv(ptr noundef nonnull align 8 dereferenceable(32) %call.i.i17) #34
  %11 = extractvalue { i64, ptr } %call20, 0
  %12 = extractvalue { i64, ptr } %call20, 1
  invoke void @_ZN4absl12log_internal15LogMessageFatalC1EPKciSt17basic_string_viewIcSt11char_traitsIcEE(ptr noundef nonnull align 8 dereferenceable(16) %ref.tmp19, ptr noundef nonnull @.str.3, i32 noundef 142, i64 %11, ptr %12) #40
          to label %invoke.cont21 unwind label %lpad16.loopexit.split-lp

invoke.cont21:                                    ; preds = %while.body
  %call25 = invoke noundef nonnull align 8 dereferenceable(16) ptr @_ZN4absl12log_internal10LogMessagelsILi16EEERS1_RAT__Kc(ptr noundef nonnull align 8 dereferenceable(16) %ref.tmp19, ptr noundef nonnull align 1 dereferenceable(16) @.str.177)
          to label %invoke.cont24 unwind label %lpad23

invoke.cont24:                                    ; preds = %invoke.cont21
  call void @_ZN4absl12log_internal15LogMessageFatalD1Ev(ptr noundef nonnull align 8 dereferenceable(16) %ref.tmp19) #38
  unreachable

lpad16.loopexit:                                  ; preds = %while.end
  %lpad.loopexit = landingpad { ptr, i32 }
          cleanup
  br label %lpad16

lpad16.loopexit.split-lp:                         ; preds = %while.body, %cond.false.i.i
  %lpad.loopexit.split-lp = landingpad { ptr, i32 }
          cleanup
  br label %lpad16

lpad16:                                           ; preds = %lpad16.loopexit.split-lp, %lpad16.loopexit
  %lpad.phi = phi { ptr, i32 } [ %lpad.loopexit, %lpad16.loopexit ], [ %lpad.loopexit.split-lp, %lpad16.loopexit.split-lp ]
  invoke void @_ZN4absl5Mutex12ReaderUnlockEv(ptr noundef nonnull align 8 dereferenceable(8) %mu12)
          to label %eh.resume unwind label %terminate.lpad.i18

terminate.lpad.i18:                               ; preds = %lpad16
  %13 = landingpad { ptr, i32 }
          catch ptr null
  %14 = extractvalue { ptr, i32 } %13, 0
  call void @__clang_call_terminate(ptr %14) #38
  unreachable

lpad23:                                           ; preds = %invoke.cont21
  %15 = landingpad { ptr, i32 }
          cleanup
  call void @_ZN4absl12log_internal15LogMessageFatalD1Ev(ptr noundef nonnull align 8 dereferenceable(16) %ref.tmp19) #38
  unreachable

while.end:                                        ; preds = %for.body10
  invoke void @_ZNK4absl5Mutex16AssertReaderHeldEv(ptr noundef nonnull align 8 dereferenceable(8) %mu12)
          to label %invoke.cont27 unwind label %lpad16.loopexit

invoke.cont27:                                    ; preds = %while.end
  invoke void @_ZN4absl5Mutex12ReaderUnlockEv(ptr noundef nonnull align 8 dereferenceable(8) %mu12)
          to label %_ZN4absl15ReaderMutexLockD2Ev.exit20 unwind label %terminate.lpad.i19

terminate.lpad.i19:                               ; preds = %invoke.cont27
  %16 = landingpad { ptr, i32 }
          catch ptr null
  %17 = extractvalue { ptr, i32 } %16, 0
  tail call void @__clang_call_terminate(ptr %17) #38
  unreachable

_ZN4absl15ReaderMutexLockD2Ev.exit20:             ; preds = %invoke.cont27
  %inc29 = add nuw nsw i32 %i6.035, 1
  %18 = load i32, ptr %cxt, align 8
  %cmp9.not = icmp eq i32 %inc29, %18
  br i1 %cmp9.not, label %if.end, label %for.body10, !llvm.loop !330

if.end:                                           ; preds = %_ZN4absl15ReaderMutexLockD2Ev.exit20, %_ZN4absl15WriterMutexLockD2Ev.exit, %for.cond7.preheader, %for.cond.preheader
  ret void

eh.resume:                                        ; preds = %lpad16, %lpad
  %.pn = phi { ptr, i32 } [ %6, %lpad ], [ %lpad.phi, %lpad16 ]
  resume { ptr, i32 } %.pn
}